; Function Attrs: nounwind uwtable
define ptr @l_Lean_PrettyPrinter_Delaborator_TopDownAnalyze_annotateBool(ptr noundef %0, ptr noundef readonly captures(none) %1, ptr noundef %2, ptr noundef %3, ptr noundef %4, ptr noundef %5, ptr noundef %6, ptr noundef %7) local_unnamed_addr #1 {
  %9 = getelementptr inbounds nuw i8, ptr %1, i64 8
  %10 = load ptr, ptr %9, align 8, !tbaa !11
  %11 = getelementptr inbounds nuw i8, ptr %10, i64 16
  %12 = load ptr, ptr %11, align 8, !tbaa !11
  %13 = ptrtoint ptr %12 to i64
  %14 = and i64 %13, 1
  %.not.i23 = icmp eq i64 %14, 0
  br i1 %.not.i23, label %15, label %lean_inc.exit.i

15:                                               ; preds = %8
  %.val.i.i = load i32, ptr %12, align 4, !tbaa !8
  %16 = icmp sgt i32 %.val.i.i, 0
  br i1 %16, label %17, label %19, !prof !13

17:                                               ; preds = %15
  %18 = add nuw i32 %.val.i.i, 1
  store i32 %18, ptr %12, align 4, !tbaa !8
  br label %lean_inc.exit.i

19:                                               ; preds = %15
  %.not.i.i = icmp eq i32 %.val.i.i, 0
  br i1 %.not.i.i, label %lean_inc.exit.i, label %20

20:                                               ; preds = %19
  tail call void @lean_inc_ref_cold(ptr noundef nonnull %12) #7
  br label %lean_inc.exit.i

lean_inc.exit.i:                                  ; preds = %20, %19, %17, %8
  tail call void @lean_inc_heartbeat() #7
  %21 = tail call noalias ptr @mi_malloc_small(i64 noundef 24) #7
  %22 = icmp eq ptr %21, null
  br i1 %22, label %23, label %l_Lean_PrettyPrinter_Delaborator_SubExpr_getPos___at_Lean_PrettyPrinter_Delaborator_TopDownAnalyze_annotateBool___spec__1.exit

23:                                               ; preds = %lean_inc.exit.i
  tail call void @lean_internal_panic_out_of_memory() #8
  unreachable

l_Lean_PrettyPrinter_Delaborator_SubExpr_getPos___at_Lean_PrettyPrinter_Delaborator_TopDownAnalyze_annotateBool___spec__1.exit: ; preds = %lean_inc.exit.i
  %24 = getelementptr inbounds nuw i8, ptr %21, i64 4
  store i32 1, ptr %21, align 4, !tbaa !8
  store i32 131096, ptr %24, align 4
  %25 = getelementptr inbounds nuw i8, ptr %21, i64 8
  store ptr %12, ptr %25, align 8, !tbaa !11
  %26 = getelementptr inbounds nuw i8, ptr %21, i64 16
  store ptr %7, ptr %26, align 8, !tbaa !11
  br i1 %.not.i23, label %27, label %lean_inc.exit22

27:                                               ; preds = %l_Lean_PrettyPrinter_Delaborator_SubExpr_getPos___at_Lean_PrettyPrinter_Delaborator_TopDownAnalyze_annotateBool___spec__1.exit
  %.val.i = load i32, ptr %12, align 4, !tbaa !8
  %28 = icmp sgt i32 %.val.i, 0
  br i1 %28, label %29, label %31, !prof !13

29:                                               ; preds = %27
  %30 = add nuw i32 %.val.i, 1
  store i32 %30, ptr %12, align 4, !tbaa !8
  br label %lean_inc.exit22

31:                                               ; preds = %27
  %.not.i24 = icmp eq i32 %.val.i, 0
  br i1 %.not.i24, label %lean_inc.exit22, label %32

32:                                               ; preds = %31
  tail call void @lean_inc_ref_cold(ptr noundef nonnull %12) #7
  br label %lean_inc.exit22

lean_inc.exit22:                                  ; preds = %32, %31, %29, %l_Lean_PrettyPrinter_Delaborator_SubExpr_getPos___at_Lean_PrettyPrinter_Delaborator_TopDownAnalyze_annotateBool___spec__1.exit
  %33 = ptrtoint ptr %7 to i64
  %34 = and i64 %33, 1
  %.not28 = icmp eq i64 %34, 0
  br i1 %.not28, label %35, label %lean_inc.exit

35:                                               ; preds = %lean_inc.exit22
  %.val.i25 = load i32, ptr %7, align 4, !tbaa !8
  %36 = icmp sgt i32 %.val.i25, 0
  br i1 %36, label %37, label %39, !prof !13

37:                                               ; preds = %35
  %38 = add nuw i32 %.val.i25, 1
  store i32 %38, ptr %7, align 4, !tbaa !8
  br label %lean_inc.exit

39:                                               ; preds = %35
  %.not.i26 = icmp eq i32 %.val.i25, 0
  br i1 %.not.i26, label %lean_inc.exit, label %40

40:                                               ; preds = %39
  tail call void @lean_inc_ref_cold(ptr noundef nonnull %7) #7
  br label %lean_inc.exit

lean_inc.exit:                                    ; preds = %40, %39, %37, %lean_inc.exit22
  %41 = ptrtoint ptr %21 to i64
  %42 = and i64 %41, 1
  %.not29 = icmp eq i64 %42, 0
  br i1 %.not29, label %43, label %lean_dec.exit

43:                                               ; preds = %lean_inc.exit
  tail call void @lean_dec_ref_cold(ptr noundef nonnull %21) #7
  br label %lean_dec.exit

lean_dec.exit:                                    ; preds = %43, %lean_inc.exit
  %44 = tail call ptr @l_Lean_PrettyPrinter_Delaborator_TopDownAnalyze_annotateBoolAt(ptr noundef %0, ptr noundef %12, ptr nonnull poison, ptr noundef %2, ptr noundef %3, ptr noundef %4, ptr noundef %5, ptr noundef %6, ptr noundef %7)
  ret ptr %44
}